target datalayout = "e-m:e-p270:32:32-p271:32:32-p272:64:64-i64:64-i128:128-f80:128-n8:16:32:64-S128"
target triple = "x86_64-pc-linux-gnu"

; Function Attrs: nounwind uwtable
define internal void @aderivative_s16p(ptr noundef %0, ptr noundef %1, ptr noundef %2, i32 noundef %3, i32 noundef %4) #1 {
  %6 = alloca ptr, align 8
  %7 = alloca ptr, align 8
  %8 = alloca ptr, align 8
  %9 = alloca i32, align 4
  %10 = alloca i32, align 4
  %11 = alloca i32, align 4
  %12 = alloca i32, align 4
  %13 = alloca ptr, align 8
  %14 = alloca ptr, align 8
  %15 = alloca ptr, align 8
  %16 = alloca i16, align 2
  store ptr %0, ptr %6, align 8, !tbaa !54
  store ptr %1, ptr %7, align 8, !tbaa !54
  store ptr %2, ptr %8, align 8, !tbaa !54
  store i32 %3, ptr %9, align 4, !tbaa !55
  store i32 %4, ptr %10, align 4, !tbaa !55
  call void @llvm.lifetime.start.p0(i64 4, ptr %11) #5
  call void @llvm.lifetime.start.p0(i64 4, ptr %12) #5
  store i32 0, ptr %12, align 4, !tbaa !55
  br label %17

17:                                               ; preds = %66, %5
  %18 = load i32, ptr %12, align 4, !tbaa !55
  %19 = load i32, ptr %10, align 4, !tbaa !55
  %20 = icmp slt i32 %18, %19
  br i1 %20, label %21, label %69

21:                                               ; preds = %17
  call void @llvm.lifetime.start.p0(i64 8, ptr %13) #5
  %22 = load ptr, ptr %8, align 8, !tbaa !54
  %23 = load i32, ptr %12, align 4, !tbaa !55
  %24 = sext i32 %23 to i64
  %25 = getelementptr inbounds ptr, ptr %22, i64 %24
  %26 = load ptr, ptr %25, align 8, !tbaa !56
  store ptr %26, ptr %13, align 8, !tbaa !73
  call void @llvm.lifetime.start.p0(i64 8, ptr %14) #5
  %27 = load ptr, ptr %6, align 8, !tbaa !54
  %28 = load i32, ptr %12, align 4, !tbaa !55
  %29 = sext i32 %28 to i64
  %30 = getelementptr inbounds ptr, ptr %27, i64 %29
  %31 = load ptr, ptr %30, align 8, !tbaa !56
  store ptr %31, ptr %14, align 8, !tbaa !73
  call void @llvm.lifetime.start.p0(i64 8, ptr %15) #5
  %32 = load ptr, ptr %7, align 8, !tbaa !54
  %33 = load i32, ptr %12, align 4, !tbaa !55
  %34 = sext i32 %33 to i64
  %35 = getelementptr inbounds ptr, ptr %32, i64 %34
  %36 = load ptr, ptr %35, align 8, !tbaa !56
  store ptr %36, ptr %15, align 8, !tbaa !73
  store i32 0, ptr %11, align 4, !tbaa !55
  br label %37

37:                                               ; preds = %62, %21
  %38 = load i32, ptr %11, align 4, !tbaa !55
  %39 = load i32, ptr %9, align 4, !tbaa !55
  %40 = icmp slt i32 %38, %39
  br i1 %40, label %41, label %65

41:                                               ; preds = %37
  call void @llvm.lifetime.start.p0(i64 2, ptr %16) #5
  %42 = load ptr, ptr %13, align 8, !tbaa !73
  %43 = load i32, ptr %11, align 4, !tbaa !55
  %44 = sext i32 %43 to i64
  %45 = getelementptr inbounds i16, ptr %42, i64 %44
  %46 = load i16, ptr %45, align 2, !tbaa !75
  store i16 %46, ptr %16, align 2, !tbaa !75
  %47 = load i16, ptr %16, align 2, !tbaa !75
  %48 = sext i16 %47 to i32
  %49 = load ptr, ptr %15, align 8, !tbaa !73
  %50 = getelementptr inbounds i16, ptr %49, i64 0
  %51 = load i16, ptr %50, align 2, !tbaa !75
  %52 = sext i16 %51 to i32
  %53 = sub nsw i32 %48, %52
  %54 = trunc i32 %53 to i16
  %55 = load ptr, ptr %14, align 8, !tbaa !73
  %56 = load i32, ptr %11, align 4, !tbaa !55
  %57 = sext i32 %56 to i64
  %58 = getelementptr inbounds i16, ptr %55, i64 %57
  store i16 %54, ptr %58, align 2, !tbaa !75
  %59 = load i16, ptr %16, align 2, !tbaa !75
  %60 = load ptr, ptr %15, align 8, !tbaa !73
  %61 = getelementptr inbounds i16, ptr %60, i64 0
  store i16 %59, ptr %61, align 2, !tbaa !75
  call void @llvm.lifetime.end.p0(i64 2, ptr %16) #5
  br label %62

62:                                               ; preds = %41
  %63 = load i32, ptr %11, align 4, !tbaa !55
  %64 = add nsw i32 %63, 1
  store i32 %64, ptr %11, align 4, !tbaa !55
  br label %37, !llvm.loop !77

65:                                               ; preds = %37
  call void @llvm.lifetime.end.p0(i64 8, ptr %15) #5
  call void @llvm.lifetime.end.p0(i64 8, ptr %14) #5
  call void @llvm.lifetime.end.p0(i64 8, ptr %13) #5
  br label %66

66:                                               ; preds = %65
  %67 = load i32, ptr %12, align 4, !tbaa !55
  %68 = add nsw i32 %67, 1
  store i32 %68, ptr %12, align 4, !tbaa !55
  br label %17, !llvm.loop !78

69:                                               ; preds = %17
  call void @llvm.lifetime.end.p0(i64 4, ptr %12) #5
  call void @llvm.lifetime.end.p0(i64 4, ptr %11) #5
  ret void
}